ARM GAS  C:\Users\CHONGY~1\AppData\Local\Temp\ccPO20r6.s 			page 1


   1              		.syntax unified
   2              		.cpu cortex-m3
   3              		.fpu softvfp
   4              		.eabi_attribute 20, 1
   5              		.eabi_attribute 21, 1
   6              		.eabi_attribute 23, 3
   7              		.eabi_attribute 24, 1
   8              		.eabi_attribute 25, 1
   9              		.eabi_attribute 26, 1
  10              		.eabi_attribute 30, 1
  11              		.eabi_attribute 34, 1
  12              		.eabi_attribute 18, 4
  13              		.thumb
  14              		.syntax unified
  15              		.file	"mean_filter.c"
  16              		.text
  17              	.Ltext0:
  18              		.cfi_sections	.debug_frame
  19              		.global	__aeabi_dadd
  20              		.global	__aeabi_dsub
  21              		.global	__aeabi_ddiv
  22              		.section	.text.meanFilter,"ax",%progbits
  23              		.align	2
  24              		.global	meanFilter
  25              		.thumb
  26              		.thumb_func
  27              		.type	meanFilter, %function
  28              	meanFilter:
  29              	.LFB1:
  30              		.file 1 "..\\..\\..\\Draft\\mean_filter.c"
   1:..\..\..\Draft/mean_filter.c **** #include <stdio.h>
   2:..\..\..\Draft/mean_filter.c **** #include <stdlib.h>
   3:..\..\..\Draft/mean_filter.c **** #include "mean_filter.h"
   4:..\..\..\Draft/mean_filter.c **** 
   5:..\..\..\Draft/mean_filter.c **** // Function to update the FIFO array and calculate the mean
   6:..\..\..\Draft/mean_filter.c **** double meanFilter(double fifo[], double newValue) {
  31              		.loc 1 6 0
  32              		.cfi_startproc
  33              		@ args = 0, pretend = 0, frame = 0
  34              		@ frame_needed = 0, uses_anonymous_args = 0
  35              	.LVL0:
  36 0000 2DE9F041 		push	{r4, r5, r6, r7, r8, lr}
  37              		.cfi_def_cfa_offset 24
  38              		.cfi_offset 4, -24
  39              		.cfi_offset 5, -20
  40              		.cfi_offset 6, -16
  41              		.cfi_offset 7, -12
  42              		.cfi_offset 8, -8
  43              		.cfi_offset 14, -4
  44 0004 8046     		mov	r8, r0
  45 0006 1646     		mov	r6, r2
  46 0008 1F46     		mov	r7, r3
   7:..\..\..\Draft/mean_filter.c ****     static int currentIndex = 0;
   8:..\..\..\Draft/mean_filter.c ****     static int isInitialized = 0;
   9:..\..\..\Draft/mean_filter.c ****     static double sum = 0.0;
  10:..\..\..\Draft/mean_filter.c **** 
  11:..\..\..\Draft/mean_filter.c ****     if (!isInitialized) {
ARM GAS  C:\Users\CHONGY~1\AppData\Local\Temp\ccPO20r6.s 			page 2


  47              		.loc 1 11 0
  48 000a 214B     		ldr	r3, .L9
  49 000c 1B68     		ldr	r3, [r3]
  50 000e 7BB1     		cbz	r3, .L6
  51 0010 15E0     		b	.L7
  52              	.LVL1:
  53              	.L4:
  54              	.LBB2:
  12:..\..\..\Draft/mean_filter.c ****         for (int i = 0; i < ARRAY_SIZE; i++) {
  13:..\..\..\Draft/mean_filter.c ****             fifo[i] = newValue;
  55              		.loc 1 13 0 discriminator 3
  56 0012 08EBC403 		add	r3, r8, r4, lsl #3
  57 0016 C3E90067 		strd	r6, [r3]
  14:..\..\..\Draft/mean_filter.c ****             sum += newValue;
  58              		.loc 1 14 0 discriminator 3
  59 001a 1D4D     		ldr	r5, .L9
  60 001c 3246     		mov	r2, r6
  61 001e 3B46     		mov	r3, r7
  62 0020 D5E90201 		ldrd	r0, [r5, #8]
  63 0024 FFF7FEFF 		bl	__aeabi_dadd
  64              	.LVL2:
  65 0028 C5E90201 		strd	r0, [r5, #8]
  12:..\..\..\Draft/mean_filter.c ****         for (int i = 0; i < ARRAY_SIZE; i++) {
  66              		.loc 1 12 0 discriminator 3
  67 002c 0134     		adds	r4, r4, #1
  68              	.LVL3:
  69 002e 00E0     		b	.L2
  70              	.LVL4:
  71              	.L6:
  72              	.LBE2:
  73 0030 0024     		movs	r4, #0
  74              	.LVL5:
  75              	.L2:
  76              	.LBB3:
  12:..\..\..\Draft/mean_filter.c ****         for (int i = 0; i < ARRAY_SIZE; i++) {
  77              		.loc 1 12 0 is_stmt 0 discriminator 1
  78 0032 042C     		cmp	r4, #4
  79 0034 EDDD     		ble	.L4
  80              	.LBE3:
  15:..\..\..\Draft/mean_filter.c ****         }
  16:..\..\..\Draft/mean_filter.c ****         isInitialized = 1;
  81              		.loc 1 16 0 is_stmt 1
  82 0036 0122     		movs	r2, #1
  83 0038 154B     		ldr	r3, .L9
  84 003a 1A60     		str	r2, [r3]
  85 003c 1EE0     		b	.L5
  86              	.LVL6:
  87              	.L7:
  17:..\..\..\Draft/mean_filter.c ****     } else {
  18:..\..\..\Draft/mean_filter.c ****         sum -= fifo[currentIndex];
  88              		.loc 1 18 0
  89 003e 144C     		ldr	r4, .L9
  90 0040 2569     		ldr	r5, [r4, #16]
  91 0042 00EBC508 		add	r8, r0, r5, lsl #3
  92 0046 D8E90023 		ldrd	r2, [r8]
  93              	.LVL7:
  94 004a D4E90201 		ldrd	r0, [r4, #8]
ARM GAS  C:\Users\CHONGY~1\AppData\Local\Temp\ccPO20r6.s 			page 3


  95              	.LVL8:
  96 004e FFF7FEFF 		bl	__aeabi_dsub
  97              	.LVL9:
  19:..\..\..\Draft/mean_filter.c ****         fifo[currentIndex] = newValue;
  98              		.loc 1 19 0
  99 0052 C8E90067 		strd	r6, [r8]
  20:..\..\..\Draft/mean_filter.c ****         sum += newValue;
 100              		.loc 1 20 0
 101 0056 0246     		mov	r2, r0
 102 0058 0B46     		mov	r3, r1
 103 005a 3046     		mov	r0, r6
 104 005c 3946     		mov	r1, r7
 105 005e FFF7FEFF 		bl	__aeabi_dadd
 106              	.LVL10:
 107 0062 C4E90201 		strd	r0, [r4, #8]
  21:..\..\..\Draft/mean_filter.c **** 
  22:..\..\..\Draft/mean_filter.c ****         currentIndex = (currentIndex + 1) % ARRAY_SIZE;
 108              		.loc 1 22 0
 109 0066 6A1C     		adds	r2, r5, #1
 110 0068 0A4B     		ldr	r3, .L9+4
 111 006a 83FB0231 		smull	r3, r1, r3, r2
 112 006e D317     		asrs	r3, r2, #31
 113 0070 C3EB6103 		rsb	r3, r3, r1, asr #1
 114 0074 03EB8303 		add	r3, r3, r3, lsl #2
 115 0078 D31A     		subs	r3, r2, r3
 116 007a 2361     		str	r3, [r4, #16]
 117              	.L5:
  23:..\..\..\Draft/mean_filter.c ****     }
  24:..\..\..\Draft/mean_filter.c **** 
  25:..\..\..\Draft/mean_filter.c ****     return sum / ARRAY_SIZE;
 118              		.loc 1 25 0
 119 007c 0022     		movs	r2, #0
 120 007e 064B     		ldr	r3, .L9+8
 121 0080 0349     		ldr	r1, .L9
 122 0082 D1E90201 		ldrd	r0, [r1, #8]
 123 0086 FFF7FEFF 		bl	__aeabi_ddiv
 124              	.LVL11:
  26:..\..\..\Draft/mean_filter.c **** }
 125              		.loc 1 26 0
 126 008a BDE8F081 		pop	{r4, r5, r6, r7, r8, pc}
 127              	.L10:
 128 008e 00BF     		.align	2
 129              	.L9:
 130 0090 00000000 		.word	.LANCHOR0
 131 0094 67666666 		.word	1717986919
 132 0098 00001440 		.word	1075052544
 133              		.cfi_endproc
 134              	.LFE1:
 135              		.size	meanFilter, .-meanFilter
 136              		.bss
 137              		.align	3
 138              		.set	.LANCHOR0,. + 0
 139              		.type	isInitialized.5572, %object
 140              		.size	isInitialized.5572, 4
 141              	isInitialized.5572:
 142 0000 00000000 		.space	4
 143 0004 00000000 		.space	4
ARM GAS  C:\Users\CHONGY~1\AppData\Local\Temp\ccPO20r6.s 			page 4


 144              		.type	sum.5573, %object
 145              		.size	sum.5573, 8
 146              	sum.5573:
 147 0008 00000000 		.space	8
 147      00000000 
 148              		.type	currentIndex.5571, %object
 149              		.size	currentIndex.5571, 4
 150              	currentIndex.5571:
 151 0010 00000000 		.space	4
 152              		.text
 153              	.Letext0: