ARM GAS  C:\Users\CHONGY~1\AppData\Local\Temp\ccVMee3A.s 			page 1


   1              		.syntax unified
   2              		.cpu cortex-m3
   3              		.fpu softvfp
   4              		.eabi_attribute 20, 1
   5              		.eabi_attribute 21, 1
   6              		.eabi_attribute 23, 3
   7              		.eabi_attribute 24, 1
   8              		.eabi_attribute 25, 1
   9              		.eabi_attribute 26, 1
  10              		.eabi_attribute 30, 1
  11              		.eabi_attribute 34, 1
  12              		.eabi_attribute 18, 4
  13              		.thumb
  14              		.syntax unified
  15              		.file	"median_filter.c"
  16              		.text
  17              	.Ltext0:
  18              		.cfi_sections	.debug_frame
  19              		.section	.text.swap,"ax",%progbits
  20              		.align	2
  21              		.global	swap
  22              		.thumb
  23              		.thumb_func
  24              		.type	swap, %function
  25              	swap:
  26              	.LFB1:
  27              		.file 1 "median_filter.c"
   1:median_filter.c **** /* ========================================
   2:median_filter.c ****  *
   3:median_filter.c ****  * Copyright YOUR COMPANY, THE YEAR
   4:median_filter.c ****  * All Rights Reserved
   5:median_filter.c ****  * UNPUBLISHED, LICENSED SOFTWARE.
   6:median_filter.c ****  *
   7:median_filter.c ****  * CONFIDENTIAL AND PROPRIETARY INFORMATION
   8:median_filter.c ****  * WHICH IS THE PROPERTY OF your company.
   9:median_filter.c ****  *
  10:median_filter.c ****  * ========================================
  11:median_filter.c **** */
  12:median_filter.c **** #include <stdio.h>
  13:median_filter.c **** #include "median_filter.h"
  14:median_filter.c **** 
  15:median_filter.c **** // Function to swap two elements
  16:median_filter.c **** void swap(double *a, double *b) {
  28              		.loc 1 16 0
  29              		.cfi_startproc
  30              		@ args = 0, pretend = 0, frame = 0
  31              		@ frame_needed = 0, uses_anonymous_args = 0
  32              		@ link register save eliminated.
  33              	.LVL0:
  34 0000 30B4     		push	{r4, r5}
  35              		.cfi_def_cfa_offset 8
  36              		.cfi_offset 4, -8
  37              		.cfi_offset 5, -4
  17:median_filter.c ****     double temp = *a;
  38              		.loc 1 17 0
  39 0002 D0E90045 		ldrd	r4, [r0]
  40              	.LVL1:
ARM GAS  C:\Users\CHONGY~1\AppData\Local\Temp\ccVMee3A.s 			page 2


  18:median_filter.c ****     *a = *b;
  41              		.loc 1 18 0
  42 0006 D1E90023 		ldrd	r2, [r1]
  43 000a C0E90023 		strd	r2, [r0]
  19:median_filter.c ****     *b = temp;
  44              		.loc 1 19 0
  45 000e C1E90045 		strd	r4, [r1]
  20:median_filter.c **** }
  46              		.loc 1 20 0
  47 0012 30BC     		pop	{r4, r5}
  48              		.cfi_restore 5
  49              		.cfi_restore 4
  50              		.cfi_def_cfa_offset 0
  51              	.LVL2:
  52 0014 7047     		bx	lr
  53              		.cfi_endproc
  54              	.LFE1:
  55              		.size	swap, .-swap
  56              		.global	__aeabi_dcmpgt
  57 0016 00BF     		.section	.text.partition,"ax",%progbits
  58              		.align	2
  59              		.global	partition
  60              		.thumb
  61              		.thumb_func
  62              		.type	partition, %function
  63              	partition:
  64              	.LFB2:
  21:median_filter.c **** 
  22:median_filter.c **** // Partition function for Quick Sort
  23:median_filter.c **** int partition(double *arr, int low, int high) {
  65              		.loc 1 23 0
  66              		.cfi_startproc
  67              		@ args = 0, pretend = 0, frame = 0
  68              		@ frame_needed = 0, uses_anonymous_args = 0
  69              	.LVL3:
  70 0000 2DE9F84F 		push	{r3, r4, r5, r6, r7, r8, r9, r10, fp, lr}
  71              		.cfi_def_cfa_offset 40
  72              		.cfi_offset 3, -40
  73              		.cfi_offset 4, -36
  74              		.cfi_offset 5, -32
  75              		.cfi_offset 6, -28
  76              		.cfi_offset 7, -24
  77              		.cfi_offset 8, -20
  78              		.cfi_offset 9, -16
  79              		.cfi_offset 10, -12
  80              		.cfi_offset 11, -8
  81              		.cfi_offset 14, -4
  82 0004 0646     		mov	r6, r0
  83 0006 0C46     		mov	r4, r1
  84 0008 9246     		mov	r10, r2
  24:median_filter.c ****     double pivot = arr[high];
  85              		.loc 1 24 0
  86 000a 00EBC20B 		add	fp, r0, r2, lsl #3
  87 000e DBE90089 		ldrd	r8, [fp]
  88              	.LVL4:
  25:median_filter.c ****     int i = (low - 1);
  89              		.loc 1 25 0
ARM GAS  C:\Users\CHONGY~1\AppData\Local\Temp\ccVMee3A.s 			page 3


  90 0012 4F1E     		subs	r7, r1, #1
  91              	.LVL5:
  92              	.LBB2:
  26:median_filter.c **** 
  27:median_filter.c ****     for (int j = low; j <= high - 1; j++) {
  93              		.loc 1 27 0
  94 0014 0FE0     		b	.L4
  95              	.LVL6:
  96              	.L7:
  28:median_filter.c ****         if (arr[j] < pivot) {
  97              		.loc 1 28 0
  98 0016 06EBC405 		add	r5, r6, r4, lsl #3
  99 001a D5E90023 		ldrd	r2, [r5]
 100 001e 4046     		mov	r0, r8
 101 0020 4946     		mov	r1, r9
 102 0022 FFF7FEFF 		bl	__aeabi_dcmpgt
 103              	.LVL7:
 104 0026 28B1     		cbz	r0, .L5
  29:median_filter.c ****             i++;
 105              		.loc 1 29 0
 106 0028 0137     		adds	r7, r7, #1
 107              	.LVL8:
  30:median_filter.c ****             swap(&arr[i], &arr[j]);
 108              		.loc 1 30 0
 109 002a 2946     		mov	r1, r5
 110 002c 06EBC700 		add	r0, r6, r7, lsl #3
 111 0030 FFF7FEFF 		bl	swap
 112              	.LVL9:
 113              	.L5:
  27:median_filter.c ****         if (arr[j] < pivot) {
 114              		.loc 1 27 0 discriminator 2
 115 0034 0134     		adds	r4, r4, #1
 116              	.LVL10:
 117              	.L4:
  27:median_filter.c ****         if (arr[j] < pivot) {
 118              		.loc 1 27 0 is_stmt 0 discriminator 1
 119 0036 0AF1FF33 		add	r3, r10, #-1
 120 003a 9C42     		cmp	r4, r3
 121 003c EBDD     		ble	.L7
 122              	.LBE2:
  31:median_filter.c ****         }
  32:median_filter.c ****     }
  33:median_filter.c ****     swap(&arr[i + 1], &arr[high]);
 123              		.loc 1 33 0 is_stmt 1
 124 003e 0137     		adds	r7, r7, #1
 125              	.LVL11:
 126 0040 5946     		mov	r1, fp
 127 0042 06EBC700 		add	r0, r6, r7, lsl #3
 128 0046 FFF7FEFF 		bl	swap
 129              	.LVL12:
  34:median_filter.c ****     return (i + 1);
  35:median_filter.c **** }
 130              		.loc 1 35 0
 131 004a 3846     		mov	r0, r7
 132 004c BDE8F88F 		pop	{r3, r4, r5, r6, r7, r8, r9, r10, fp, pc}
 133              		.cfi_endproc
 134              	.LFE2:
ARM GAS  C:\Users\CHONGY~1\AppData\Local\Temp\ccVMee3A.s 			page 4


 135              		.size	partition, .-partition
 136              		.section	.text.quickSort,"ax",%progbits
 137              		.align	2
 138              		.global	quickSort
 139              		.thumb
 140              		.thumb_func
 141              		.type	quickSort, %function
 142              	quickSort:
 143              	.LFB3:
  36:median_filter.c **** 
  37:median_filter.c **** void quickSort(double *arr, int low, int high) {
 144              		.loc 1 37 0
 145              		.cfi_startproc
 146              		@ args = 0, pretend = 0, frame = 0
 147              		@ frame_needed = 0, uses_anonymous_args = 0
 148              	.LVL13:
  38:median_filter.c ****     if (low < high) {
 149              		.loc 1 38 0
 150 0000 9142     		cmp	r1, r2
 151 0002 11DA     		bge	.L13
  37:median_filter.c ****     if (low < high) {
 152              		.loc 1 37 0
 153 0004 F8B5     		push	{r3, r4, r5, r6, r7, lr}
 154              		.cfi_def_cfa_offset 24
 155              		.cfi_offset 3, -24
 156              		.cfi_offset 4, -20
 157              		.cfi_offset 5, -16
 158              		.cfi_offset 6, -12
 159              		.cfi_offset 7, -8
 160              		.cfi_offset 14, -4
 161 0006 1446     		mov	r4, r2
 162 0008 0D46     		mov	r5, r1
 163 000a 0646     		mov	r6, r0
 164              	.LBB3:
  39:median_filter.c ****         int pi = partition(arr, low, high);
 165              		.loc 1 39 0
 166 000c FFF7FEFF 		bl	partition
 167              	.LVL14:
 168 0010 0746     		mov	r7, r0
 169              	.LVL15:
  40:median_filter.c **** 
  41:median_filter.c ****         quickSort(arr, low, pi - 1);
 170              		.loc 1 41 0
 171 0012 421E     		subs	r2, r0, #1
 172 0014 2946     		mov	r1, r5
 173 0016 3046     		mov	r0, r6
 174              	.LVL16:
 175 0018 FFF7FEFF 		bl	quickSort
 176              	.LVL17:
  42:median_filter.c ****         quickSort(arr, pi + 1, high);
 177              		.loc 1 42 0
 178 001c 2246     		mov	r2, r4
 179 001e 791C     		adds	r1, r7, #1
 180 0020 3046     		mov	r0, r6
 181 0022 FFF7FEFF 		bl	quickSort
 182              	.LVL18:
 183 0026 F8BD     		pop	{r3, r4, r5, r6, r7, pc}
ARM GAS  C:\Users\CHONGY~1\AppData\Local\Temp\ccVMee3A.s 			page 5


 184              	.LVL19:
 185              	.L13:
 186              		.cfi_def_cfa_offset 0
 187              		.cfi_restore 3
 188              		.cfi_restore 4
 189              		.cfi_restore 5
 190              		.cfi_restore 6
 191              		.cfi_restore 7
 192              		.cfi_restore 14
 193 0028 7047     		bx	lr
 194              	.LBE3:
 195              		.cfi_endproc
 196              	.LFE3:
 197              		.size	quickSort, .-quickSort
 198              		.global	__aeabi_dadd
 199              		.global	__aeabi_dmul
 200 002a 00BF     		.section	.text.findMedian,"ax",%progbits
 201              		.align	2
 202              		.global	findMedian
 203              		.thumb
 204              		.thumb_func
 205              		.type	findMedian, %function
 206              	findMedian:
 207              	.LFB4:
  43:median_filter.c ****     }
  44:median_filter.c **** }
  45:median_filter.c **** 
  46:median_filter.c **** double findMedian(double arr[], int n) {
 208              		.loc 1 46 0
 209              		.cfi_startproc
 210              		@ args = 0, pretend = 0, frame = 0
 211              		@ frame_needed = 0, uses_anonymous_args = 0
 212              	.LVL20:
 213 0000 38B5     		push	{r3, r4, r5, lr}
 214              		.cfi_def_cfa_offset 16
 215              		.cfi_offset 3, -16
 216              		.cfi_offset 4, -12
 217              		.cfi_offset 5, -8
 218              		.cfi_offset 14, -4
 219 0002 0546     		mov	r5, r0
 220 0004 0C46     		mov	r4, r1
  47:median_filter.c ****     quickSort(arr, 0, n-1);
 221              		.loc 1 47 0
 222 0006 4A1E     		subs	r2, r1, #1
 223 0008 0021     		movs	r1, #0
 224              	.LVL21:
 225 000a FFF7FEFF 		bl	quickSort
 226              	.LVL22:
  48:median_filter.c **** 
  49:median_filter.c ****     if (n % 2 == 0) {
 227              		.loc 1 49 0
 228 000e 14F0010F 		tst	r4, #1
 229 0012 14D1     		bne	.L15
  50:median_filter.c ****         return (arr[n / 2 - 1] + arr[n / 2]) / 2;
 230              		.loc 1 50 0
 231 0014 04EBD474 		add	r4, r4, r4, lsr #31
 232              	.LVL23:
ARM GAS  C:\Users\CHONGY~1\AppData\Local\Temp\ccVMee3A.s 			page 6


 233 0018 6310     		asrs	r3, r4, #1
 234 001a 03F10052 		add	r2, r3, #536870912
 235 001e 013A     		subs	r2, r2, #1
 236 0020 05EBC201 		add	r1, r5, r2, lsl #3
 237 0024 05EBC303 		add	r3, r5, r3, lsl #3
 238 0028 D3E90023 		ldrd	r2, [r3]
 239 002c D1E90001 		ldrd	r0, [r1]
 240 0030 FFF7FEFF 		bl	__aeabi_dadd
 241              	.LVL24:
 242 0034 0022     		movs	r2, #0
 243 0036 064B     		ldr	r3, .L18
 244 0038 FFF7FEFF 		bl	__aeabi_dmul
 245              	.LVL25:
 246 003c 38BD     		pop	{r3, r4, r5, pc}
 247              	.LVL26:
 248              	.L15:
  51:median_filter.c ****     } else {
  52:median_filter.c ****         return arr[n / 2];
 249              		.loc 1 52 0
 250 003e 04EBD474 		add	r4, r4, r4, lsr #31
 251              	.LVL27:
 252 0042 6410     		asrs	r4, r4, #1
 253 0044 05EBC404 		add	r4, r5, r4, lsl #3
 254 0048 D4E90001 		ldrd	r0, [r4]
  53:median_filter.c ****     }
  54:median_filter.c **** }
 255              		.loc 1 54 0
 256 004c 38BD     		pop	{r3, r4, r5, pc}
 257              	.LVL28:
 258              	.L19:
 259 004e 00BF     		.align	2
 260              	.L18:
 261 0050 0000E03F 		.word	1071644672
 262              		.cfi_endproc
 263              	.LFE4:
 264              		.size	findMedian, .-findMedian
 265              		.section	.text.medianFilter,"ax",%progbits
 266              		.align	2
 267              		.global	medianFilter
 268              		.thumb
 269              		.thumb_func
 270              		.type	medianFilter, %function
 271              	medianFilter:
 272              	.LFB5:
  55:median_filter.c **** 
  56:median_filter.c **** double medianFilter(double fifo[], double newValue) {
 273              		.loc 1 56 0
 274              		.cfi_startproc
 275              		@ args = 0, pretend = 0, frame = 40
 276              		@ frame_needed = 0, uses_anonymous_args = 0
 277              	.LVL29:
 278 0000 70B5     		push	{r4, r5, r6, lr}
 279              		.cfi_def_cfa_offset 16
 280              		.cfi_offset 4, -16
 281              		.cfi_offset 5, -12
 282              		.cfi_offset 6, -8
 283              		.cfi_offset 14, -4
ARM GAS  C:\Users\CHONGY~1\AppData\Local\Temp\ccVMee3A.s 			page 7


 284 0002 8AB0     		sub	sp, sp, #40
 285              		.cfi_def_cfa_offset 56
 286 0004 1446     		mov	r4, r2
 287 0006 1D46     		mov	r5, r3
  57:median_filter.c ****     static int currentIndex = 0;
  58:median_filter.c ****     static int isInitialized = 0;
  59:median_filter.c ****     double tempArray[ARRAY_SIZE];
  60:median_filter.c **** 
  61:median_filter.c ****     if (!isInitialized) {
 288              		.loc 1 61 0
 289 0008 194B     		ldr	r3, .L28
 290 000a 1B68     		ldr	r3, [r3]
 291 000c 33B1     		cbz	r3, .L26
 292 000e 0BE0     		b	.L22
 293              	.LVL30:
 294              	.L23:
 295              	.LBB4:
  62:median_filter.c ****         for (int i = 0; i < ARRAY_SIZE; i++) {
  63:median_filter.c ****             fifo[i] = newValue;
 296              		.loc 1 63 0 discriminator 3
 297 0010 00EBC301 		add	r1, r0, r3, lsl #3
 298 0014 C1E90045 		strd	r4, [r1]
  62:median_filter.c ****         for (int i = 0; i < ARRAY_SIZE; i++) {
 299              		.loc 1 62 0 discriminator 3
 300 0018 0133     		adds	r3, r3, #1
 301              	.LVL31:
 302 001a 00E0     		b	.L21
 303              	.LVL32:
 304              	.L26:
 305              	.LBE4:
 306 001c 0023     		movs	r3, #0
 307              	.L21:
 308              	.LVL33:
 309              	.LBB5:
  62:median_filter.c ****         for (int i = 0; i < ARRAY_SIZE; i++) {
 310              		.loc 1 62 0 is_stmt 0 discriminator 1
 311 001e 042B     		cmp	r3, #4
 312 0020 F6DD     		ble	.L23
 313              	.LBE5:
  64:median_filter.c ****         }
  65:median_filter.c ****         isInitialized = 1;
 314              		.loc 1 65 0 is_stmt 1
 315 0022 0122     		movs	r2, #1
 316              	.LVL34:
 317 0024 124B     		ldr	r3, .L28
 318              	.LVL35:
 319 0026 1A60     		str	r2, [r3]
 320              	.L22:
  66:median_filter.c ****     }
  67:median_filter.c **** 
  68:median_filter.c ****     fifo[currentIndex] = newValue;
 321              		.loc 1 68 0
 322 0028 114E     		ldr	r6, .L28
 323 002a 7368     		ldr	r3, [r6, #4]
 324 002c 00EBC302 		add	r2, r0, r3, lsl #3
 325 0030 C2E90045 		strd	r4, [r2]
  69:median_filter.c ****     currentIndex = (currentIndex + 1) % ARRAY_SIZE;
ARM GAS  C:\Users\CHONGY~1\AppData\Local\Temp\ccVMee3A.s 			page 8


 326              		.loc 1 69 0
 327 0034 5A1C     		adds	r2, r3, #1
 328 0036 0F4B     		ldr	r3, .L28+4
 329 0038 83FB0231 		smull	r3, r1, r3, r2
 330 003c D317     		asrs	r3, r2, #31
 331 003e C3EB6103 		rsb	r3, r3, r1, asr #1
 332 0042 03EB8303 		add	r3, r3, r3, lsl #2
 333 0046 D31A     		subs	r3, r2, r3
 334 0048 7360     		str	r3, [r6, #4]
 335              	.LVL36:
 336              	.LBB6:
  70:median_filter.c **** 
  71:median_filter.c ****     // Make a copy of the FIFO array and calculate the median
  72:median_filter.c ****     for (int i = 0; i < ARRAY_SIZE; i++) {
 337              		.loc 1 72 0
 338 004a 0022     		movs	r2, #0
 339 004c 08E0     		b	.L24
 340              	.LVL37:
 341              	.L25:
  73:median_filter.c ****         tempArray[i] = fifo[i];
 342              		.loc 1 73 0 discriminator 3
 343 004e D300     		lsls	r3, r2, #3
 344 0050 C118     		adds	r1, r0, r3
 345 0052 D1E90045 		ldrd	r4, [r1]
 346 0056 0AA9     		add	r1, sp, #40
 347 0058 0B44     		add	r3, r3, r1
 348 005a 43E90A45 		strd	r4, [r3, #-40]
  72:median_filter.c ****         tempArray[i] = fifo[i];
 349              		.loc 1 72 0 discriminator 3
 350 005e 0132     		adds	r2, r2, #1
 351              	.LVL38:
 352              	.L24:
  72:median_filter.c ****         tempArray[i] = fifo[i];
 353              		.loc 1 72 0 is_stmt 0 discriminator 1
 354 0060 042A     		cmp	r2, #4
 355 0062 F4DD     		ble	.L25
 356              	.LBE6:
  74:median_filter.c ****     }
  75:median_filter.c **** 
  76:median_filter.c ****     double median = findMedian(tempArray, ARRAY_SIZE);
 357              		.loc 1 76 0 is_stmt 1
 358 0064 0521     		movs	r1, #5
 359 0066 6846     		mov	r0, sp
 360              	.LVL39:
 361 0068 FFF7FEFF 		bl	findMedian
 362              	.LVL40:
  77:median_filter.c ****     return median;
  78:median_filter.c **** }
 363              		.loc 1 78 0
 364 006c 0AB0     		add	sp, sp, #40
 365              		.cfi_def_cfa_offset 16
 366              		@ sp needed
 367 006e 70BD     		pop	{r4, r5, r6, pc}
 368              	.L29:
 369              		.align	2
 370              	.L28:
 371 0070 00000000 		.word	.LANCHOR0
ARM GAS  C:\Users\CHONGY~1\AppData\Local\Temp\ccVMee3A.s 			page 9


 372 0074 67666666 		.word	1717986919
 373              		.cfi_endproc
 374              	.LFE5:
 375              		.size	medianFilter, .-medianFilter
 376              		.bss
 377              		.align	2
 378              		.set	.LANCHOR0,. + 0
 379              		.type	isInitialized.5202, %object
 380              		.size	isInitialized.5202, 4
 381              	isInitialized.5202:
 382 0000 00000000 		.space	4
 383              		.type	currentIndex.5201, %object
 384              		.size	currentIndex.5201, 4
 385              	currentIndex.5201:
 386 0004 00000000 		.space	4
 387              		.text
 388              	.Letext0: