ARM GAS  C:\Users\CHONGY~1\AppData\Local\Temp\cccqaPnj.s 			page 1


   1              		.syntax unified
   2              		.cpu cortex-m3
   3              		.fpu softvfp
   4              		.eabi_attribute 20, 1
   5              		.eabi_attribute 21, 1
   6              		.eabi_attribute 23, 3
   7              		.eabi_attribute 24, 1
   8              		.eabi_attribute 25, 1
   9              		.eabi_attribute 26, 1
  10              		.eabi_attribute 30, 1
  11              		.eabi_attribute 34, 1
  12              		.eabi_attribute 18, 4
  13              		.thumb
  14              		.syntax unified
  15              		.file	"motor_control.c"
  16              		.text
  17              	.Ltext0:
  18              		.cfi_sections	.debug_frame
  19              		.section	.text.motor_move,"ax",%progbits
  20              		.align	2
  21              		.global	motor_move
  22              		.thumb
  23              		.thumb_func
  24              		.type	motor_move, %function
  25              	motor_move:
  26              	.LFB63:
  27              		.file 1 "motor_control.c"
   1:motor_control.c **** /* ========================================
   2:motor_control.c ****  *
   3:motor_control.c ****  * Copyright YOUR COMPANY, THE YEAR
   4:motor_control.c ****  * All Rights Reserved
   5:motor_control.c ****  * UNPUBLISHED, LICENSED SOFTWARE.
   6:motor_control.c ****  *
   7:motor_control.c ****  * CONFIDENTIAL AND PROPRIETARY INFORMATION
   8:motor_control.c ****  * WHICH IS THE PROPERTY OF your company.
   9:motor_control.c ****  *
  10:motor_control.c ****  * ========================================
  11:motor_control.c **** */
  12:motor_control.c **** 
  13:motor_control.c **** /* [] END OF FILE */
  14:motor_control.c **** #include "motor_control.h"
  15:motor_control.c **** #include "project.h" // Include the necessary project-specific header file
  16:motor_control.c **** 
  17:motor_control.c **** void motor_move(int mode, int direction, int speed) {
  28              		.loc 1 17 0
  29              		.cfi_startproc
  30              		@ args = 0, pretend = 0, frame = 0
  31              		@ frame_needed = 0, uses_anonymous_args = 0
  32              	.LVL0:
  33 0000 38B5     		push	{r3, r4, r5, lr}
  34              		.cfi_def_cfa_offset 16
  35              		.cfi_offset 3, -16
  36              		.cfi_offset 4, -12
  37              		.cfi_offset 5, -8
  38              		.cfi_offset 14, -4
  39 0002 0C46     		mov	r4, r1
  18:motor_control.c ****     if (mode == ENABLE) {
ARM GAS  C:\Users\CHONGY~1\AppData\Local\Temp\cccqaPnj.s 			page 2


  40              		.loc 1 18 0
  41 0004 0128     		cmp	r0, #1
  42 0006 06D1     		bne	.L2
  43 0008 1546     		mov	r5, r2
  19:motor_control.c ****         PWM_1_Start();
  44              		.loc 1 19 0
  45 000a FFF7FEFF 		bl	PWM_1_Start
  46              	.LVL1:
  20:motor_control.c ****         PWM_1_WriteCompare(speed);
  47              		.loc 1 20 0
  48 000e E8B2     		uxtb	r0, r5
  49 0010 FFF7FEFF 		bl	PWM_1_WriteCompare
  50              	.LVL2:
  51 0014 02E0     		b	.L3
  52              	.LVL3:
  53              	.L2:
  21:motor_control.c ****     } else if (mode == DISABLE) {
  54              		.loc 1 21 0
  55 0016 08B9     		cbnz	r0, .L3
  22:motor_control.c ****         PWM_1_Stop();
  56              		.loc 1 22 0
  57 0018 FFF7FEFF 		bl	PWM_1_Stop
  58              	.LVL4:
  59              	.L3:
  23:motor_control.c ****     }
  24:motor_control.c **** 
  25:motor_control.c ****     if (direction == FORWARD || direction == BACKWARD) {
  60              		.loc 1 25 0
  61 001c 012C     		cmp	r4, #1
  62 001e 10D8     		bhi	.L4
  26:motor_control.c ****         MOTOR_1_IN_LEFT_Write(direction);
  63              		.loc 1 26 0
  64 0020 E0B2     		uxtb	r0, r4
  65 0022 FFF7FEFF 		bl	MOTOR_1_IN_LEFT_Write
  66              	.LVL5:
  27:motor_control.c ****         MOTOR_1_IN_RIGHT_Write(!direction);
  67              		.loc 1 27 0
  68 0026 B4FA84F0 		clz	r0, r4
  69 002a 4009     		lsrs	r0, r0, #5
  70 002c FFF7FEFF 		bl	MOTOR_1_IN_RIGHT_Write
  71              	.LVL6:
  28:motor_control.c **** 
  29:motor_control.c ****         MOTOR_2_IN_LEFT_Write(MOTOR_1_IN_LEFT_Read());
  72              		.loc 1 29 0
  73 0030 FFF7FEFF 		bl	MOTOR_1_IN_LEFT_Read
  74              	.LVL7:
  75 0034 FFF7FEFF 		bl	MOTOR_2_IN_LEFT_Write
  76              	.LVL8:
  30:motor_control.c ****         MOTOR_2_IN_RIGHT_Write(MOTOR_1_IN_RIGHT_Read());
  77              		.loc 1 30 0
  78 0038 FFF7FEFF 		bl	MOTOR_1_IN_RIGHT_Read
  79              	.LVL9:
  80 003c FFF7FEFF 		bl	MOTOR_2_IN_RIGHT_Write
  81              	.LVL10:
  82 0040 38BD     		pop	{r3, r4, r5, pc}
  83              	.LVL11:
  84              	.L4:
ARM GAS  C:\Users\CHONGY~1\AppData\Local\Temp\cccqaPnj.s 			page 3


  31:motor_control.c ****     } else {
  32:motor_control.c ****         direction -= 2;
  33:motor_control.c ****         MOTOR_1_IN_LEFT_Write(!direction);
  85              		.loc 1 33 0
  86 0042 A51E     		subs	r5, r4, #2
  87              	.LVL12:
  88 0044 022C     		cmp	r4, #2
  89 0046 14BF     		ite	ne
  90 0048 0020     		movne	r0, #0
  91 004a 0120     		moveq	r0, #1
  92 004c FFF7FEFF 		bl	MOTOR_1_IN_LEFT_Write
  93              	.LVL13:
  34:motor_control.c ****         MOTOR_1_IN_RIGHT_Write(direction);
  94              		.loc 1 34 0
  95 0050 E8B2     		uxtb	r0, r5
  96 0052 FFF7FEFF 		bl	MOTOR_1_IN_RIGHT_Write
  97              	.LVL14:
  35:motor_control.c **** 
  36:motor_control.c ****         MOTOR_2_IN_LEFT_Write(!MOTOR_1_IN_LEFT_Read());
  98              		.loc 1 36 0
  99 0056 FFF7FEFF 		bl	MOTOR_1_IN_LEFT_Read
 100              	.LVL15:
 101 005a B0FA80F0 		clz	r0, r0
 102 005e 4009     		lsrs	r0, r0, #5
 103 0060 FFF7FEFF 		bl	MOTOR_2_IN_LEFT_Write
 104              	.LVL16:
  37:motor_control.c ****         MOTOR_2_IN_RIGHT_Write(!MOTOR_1_IN_RIGHT_Read());
 105              		.loc 1 37 0
 106 0064 FFF7FEFF 		bl	MOTOR_1_IN_RIGHT_Read
 107              	.LVL17:
 108 0068 B0FA80F0 		clz	r0, r0
 109 006c 4009     		lsrs	r0, r0, #5
 110 006e FFF7FEFF 		bl	MOTOR_2_IN_RIGHT_Write
 111              	.LVL18:
 112 0072 38BD     		pop	{r3, r4, r5, pc}
 113              		.cfi_endproc
 114              	.LFE63:
 115              		.size	motor_move, .-motor_move
 116              		.text
 117              	.Letext0:
 118              		.file 2 "c:\\program files (x86)\\cypress\\psoc creator\\4.4\\psoc creator\\import\\gnu\\arm\\5.4.
 119              		.file 3 "c:\\program files (x86)\\cypress\\psoc creator\\4.4\\psoc creator\\import\\gnu\\arm\\5.4.
 120              		.file 4 "Generated_Source\\PSoC5/PWM_1.h"
 121              		.file 5 "Generated_Source\\PSoC5/MOTOR_1_IN_LEFT.h"
 122              		.file 6 "Generated_Source\\PSoC5/MOTOR_1_IN_RIGHT.h"
 123              		.file 7 "Generated_Source\\PSoC5/MOTOR_2_IN_LEFT.h"
 124              		.file 8 "Generated_Source\\PSoC5/MOTOR_2_IN_RIGHT.h"
 125              		.file 9 "Generated_Source\\PSoC5/core_cm3.h"